; ModuleID = '28/365.c'
source_filename = "28/365.c"
target datalayout = "e-m:e-p270:32:32-p271:32:32-p272:64:64-i64:64-f80:128-n8:16:32:64-S128"
target triple = "x86_64-pc-linux-gnu"

@.str = private unnamed_addr constant [4 x i8] c"%d,\00", align 1
@.str.1 = private unnamed_addr constant [3 x i8] c"%d\00", align 1

; Function Attrs: noinline nounwind uwtable
define dso_local i32 @main() #0 {
  %1 = alloca i32, align 4
  %2 = alloca i32, align 4
  %3 = alloca i32, align 4
  %4 = alloca [10000 x i8], align 16
  %5 = alloca i8*, align 8
  store i32 0, i32* %1, align 4
  store i32 0, i32* %3, align 4
  %6 = getelementptr inbounds [10000 x i8], [10000 x i8]* %4, i64 0, i64 0
  %7 = call i32 (i8*, ...) bitcast (i32 (...)* @gets to i32 (i8*, ...)*)(i8* %6)
  %8 = getelementptr inbounds [10000 x i8], [10000 x i8]* %4, i64 0, i64 0
  %9 = call i64 @strlen(i8* %8) #3
  %10 = trunc i64 %9 to i32
  store i32 %10, i32* %2, align 4
  %11 = getelementptr inbounds [10000 x i8], [10000 x i8]* %4, i64 0, i64 0
  store i8* %11, i8** %5, align 8
  br label %12

12:                                               ; preds = %44, %0
  %13 = load i8*, i8** %5, align 8
  %14 = getelementptr inbounds [10000 x i8], [10000 x i8]* %4, i64 0, i64 0
  %15 = load i32, i32* %2, align 4
  %16 = sext i32 %15 to i64
  %17 = getelementptr inbounds i8, i8* %14, i64 %16
  %18 = icmp ult i8* %13, %17
  br i1 %18, label %19, label %47

19:                                               ; preds = %12
  %20 = load i8*, i8** %5, align 8
  %21 = load i8, i8* %20, align 1
  %22 = sext i8 %21 to i32
  %23 = icmp eq i32 %22, 32
  br i1 %23, label %24, label %31

24:                                               ; preds = %19
  %25 = load i32, i32* %3, align 4
  %26 = icmp ne i32 %25, 0
  br i1 %26, label %27, label %30

27:                                               ; preds = %24
  %28 = load i32, i32* %3, align 4
  %29 = call i32 (i8*, ...) @printf(i8* getelementptr inbounds ([4 x i8], [4 x i8]* @.str, i64 0, i64 0), i32 %28)
  br label %30

30:                                               ; preds = %27, %24
  store i32 0, i32* %3, align 4
  br label %34

31:                                               ; preds = %19
  %32 = load i32, i32* %3, align 4
  %33 = add nsw i32 %32, 1
  store i32 %33, i32* %3, align 4
  br label %34

34:                                               ; preds = %31, %30
  %35 = load i8*, i8** %5, align 8
  %36 = getelementptr inbounds [10000 x i8], [10000 x i8]* %4, i64 0, i64 0
  %37 = load i32, i32* %2, align 4
  %38 = sext i32 %37 to i64
  %39 = getelementptr inbounds i8, i8* %36, i64 %38
  %40 = getelementptr inbounds i8, i8* %39, i64 -1
  %41 = icmp eq i8* %35, %40
  br i1 %41, label %42, label %43

42:                                               ; preds = %34
  br label %47

43:                                               ; preds = %34
  br label %44

44:                                               ; preds = %43
  %45 = load i8*, i8** %5, align 8
  %46 = getelementptr inbounds i8, i8* %45, i32 1
  store i8* %46, i8** %5, align 8
  br label %12

47:                                               ; preds = %42, %12
  %48 = load i32, i32* %3, align 4
  %49 = call i32 (i8*, ...) @printf(i8* getelementptr inbounds ([3 x i8], [3 x i8]* @.str.1, i64 0, i64 0), i32 %48)
  %50 = load i32, i32* %1, align 4
  ret i32 %50
}

declare dso_local i32 @gets(...) #1

; Function Attrs: nounwind readonly
declare dso_local i64 @strlen(i8*) #2

declare dso_local i32 @printf(i8*, ...) #1


!llvm.module.flags = !{!0}
!llvm.ident = !{!1}

!0 = !{i32 1, !"wchar_size", i32 4}
!1 = !{!"clang version 10.0.0-4ubuntu1 "}
