; ModuleID = 'source-C-CXX/27/365.c'
source_filename = "source-C-CXX/27/365.c"
target datalayout = "e-m:e-p270:32:32-p271:32:32-p272:64:64-i64:64-f80:128-n8:16:32:64-S128"
target triple = "x86_64-pc-linux-gnu"

@.str = private unnamed_addr constant [4 x i8] c"%d,\00", align 1
@.str.1 = private unnamed_addr constant [3 x i8] c"%d\00", align 1

; Function Attrs: nounwind sspstrong uwtable
define dso_local i32 @main() local_unnamed_addr #0 {
  %1 = alloca [10000 x i8], align 16
  %2 = getelementptr inbounds [10000 x i8], [10000 x i8]* %1, i64 0, i64 0
  call void @llvm.lifetime.start.p0i8(i64 10000, i8* nonnull %2) #5
  %3 = call i32 (i8*, ...) bitcast (i32 (...)* @gets to i32 (i8*, ...)*)(i8* nonnull %2) #5
  %4 = call i64 @strlen(i8* noundef nonnull %2) #6
  %5 = shl i64 %4, 32
  %6 = ashr exact i64 %5, 32
  %7 = getelementptr inbounds [10000 x i8], [10000 x i8]* %1, i64 0, i64 %6
  %8 = getelementptr inbounds i8, i8* %7, i64 -1
  %9 = icmp sgt i64 %5, 0
  br i1 %9, label %10, label %27

10:                                               ; preds = %0, %21
  %11 = phi i8* [ %24, %21 ], [ %2, %0 ]
  %12 = phi i32 [ %22, %21 ], [ 0, %0 ]
  %13 = load i8, i8* %11, align 1, !tbaa !5
  %14 = icmp eq i8 %13, 32
  br i1 %14, label %15, label %19

15:                                               ; preds = %10
  %16 = icmp eq i32 %12, 0
  br i1 %16, label %21, label %17

17:                                               ; preds = %15
  %18 = call i32 (i8*, ...) @printf(i8* nonnull dereferenceable(1) getelementptr inbounds ([4 x i8], [4 x i8]* @.str, i64 0, i64 0), i32 %12)
  br label %21

19:                                               ; preds = %10
  %20 = add nsw i32 %12, 1
  br label %21

21:                                               ; preds = %15, %17, %19
  %22 = phi i32 [ %20, %19 ], [ 0, %17 ], [ 0, %15 ]
  %23 = icmp ne i8* %11, %8
  %24 = getelementptr inbounds i8, i8* %11, i64 1
  %25 = icmp ult i8* %24, %7
  %26 = select i1 %23, i1 %25, i1 false
  br i1 %26, label %10, label %27, !llvm.loop !8

27:                                               ; preds = %21, %0
  %28 = phi i32 [ 0, %0 ], [ %22, %21 ]
  %29 = call i32 (i8*, ...) @printf(i8* nonnull dereferenceable(1) getelementptr inbounds ([3 x i8], [3 x i8]* @.str.1, i64 0, i64 0), i32 %28)
  call void @llvm.lifetime.end.p0i8(i64 10000, i8* nonnull %2) #5
  ret i32 0
}

; Function Attrs: argmemonly mustprogress nofree nosync nounwind willreturn
declare void @llvm.lifetime.start.p0i8(i64 immarg, i8* nocapture) #1

declare i32 @gets(...) local_unnamed_addr #2

; Function Attrs: argmemonly mustprogress nofree nounwind readonly willreturn
declare i64 @strlen(i8* nocapture) local_unnamed_addr #3

; Function Attrs: nofree nounwind
declare noundef i32 @printf(i8* nocapture noundef readonly, ...) local_unnamed_addr #4

; Function Attrs: argmemonly mustprogress nofree nosync nounwind willreturn
declare void @llvm.lifetime.end.p0i8(i64 immarg, i8* nocapture) #1


!llvm.module.flags = !{!0, !1, !2, !3}
!llvm.ident = !{!4}

!0 = !{i32 1, !"wchar_size", i32 4}
!1 = !{i32 7, !"PIC Level", i32 2}
!2 = !{i32 7, !"PIE Level", i32 2}
!3 = !{i32 7, !"uwtable", i32 1}
!4 = !{!"clang version 13.0.0"}
!5 = !{!6, !6, i64 0}
!6 = !{!"omnipotent char", !7, i64 0}
!7 = !{!"Simple C/C++ TBAA"}
!8 = distinct !{!8, !9}
!9 = !{!"llvm.loop.mustprogress"}
